target datalayout = "e-m:e-p270:32:32-p271:32:32-p272:64:64-i64:64-i128:128-f80:128-n8:16:32:64-S128"
target triple = "x86_64-unknown-linux-gnu"

%"struct.google::SiteFlag" = type { ptr, ptr, i64, ptr }
%"class.proxygen::SessionHolder" = type { %"class.proxygen::HTTPSessionBase::InfoCallback", %"class.boost::intrusive::list_member_hook", %"class.boost::intrusive::list_member_hook", ptr, ptr, ptr, %"class.std::chrono::time_point", double, i32, [4 x i8], %"class.proxygen::Endpoint", ptr }
%"class.proxygen::HTTPSessionBase::InfoCallback" = type { ptr }
%"class.boost::intrusive::list_member_hook" = type { %"class.boost::intrusive::generic_hook" }
%"class.boost::intrusive::generic_hook" = type { %"struct.boost::intrusive::list_node" }
%"struct.boost::intrusive::list_node" = type { ptr, ptr }
%"class.std::chrono::time_point" = type { %"class.std::chrono::duration" }
%"class.std::chrono::duration" = type { i64 }
%"class.proxygen::Endpoint" = type <{ %"class.std::__cxx11::basic_string", i16, [6 x i8], i64, i8, [7 x i8] }>
%"class.std::__cxx11::basic_string" = type { %"struct.std::__cxx11::basic_string<char>::_Alloc_hider", i64, %union.anon }
%"struct.std::__cxx11::basic_string<char>::_Alloc_hider" = type { ptr }
%union.anon = type { i64, [8 x i8] }
%"class.google::LogMessageFatal" = type { %"class.google::LogMessage" }
%"class.google::LogMessage" = type { ptr, ptr, %"struct.google::LogMessageTime" }
%"struct.google::LogMessageTime" = type { %struct.tm, i64, i32, i64 }
%struct.tm = type { i32, i32, i32, i32, i32, i32, i32, i32, i32, i64, ptr }
%"class.google::LogMessageVoidify" = type { i8 }

@.str = private unnamed_addr constant [140 x i8] c"generated/home/dtcxzyw/WorkSpace/Projects/compilers/llvm-opt-benchmark/bench/proxygen/proxygen/proxygen/lib/http/connpool/SessionHolder.cpp\00", align 1
@.str.3 = private unnamed_addr constant [45 x i8] c"Check failed: state_ == ListState::DETACHED \00", align 1
@_ZN3fLI7FLAGS_vE = external global i32, align 4
@_ZZN8proxygen13SessionHolder4linkEvE8vlocal__ = internal global %"struct.google::SiteFlag" zeroinitializer, align 8
@.str.11 = private unnamed_addr constant [46 x i8] c" Not pooling session since it is not poolable\00", align 1

; Function Attrs: mustprogress uwtable
define linkonce_odr noundef nonnull align 8 dereferenceable(8) ptr @_ZN8proxygenlsERSoRKNS_13SessionHolderE(ptr noundef nonnull align 8 dereferenceable(8) %os, ptr noundef nonnull align 8 dereferenceable(152) %conn) #4 comdat {
entry:
  %os.addr = alloca ptr, align 8
  %conn.addr = alloca ptr, align 8
  store ptr %os, ptr %os.addr, align 8
  store ptr %conn, ptr %conn.addr, align 8
  %0 = load ptr, ptr %conn.addr, align 8
  %1 = load ptr, ptr %os.addr, align 8
  call void @_ZNK8proxygen13SessionHolder8describeERSo(ptr noundef nonnull align 8 dereferenceable(152) %0, ptr noundef nonnull align 8 dereferenceable(8) %1)
  %2 = load ptr, ptr %os.addr, align 8
  ret ptr %2
}

; Function Attrs: mustprogress uwtable
define noundef zeroext i1 @_ZN8proxygen13SessionHolder10isPoolableEPKNS_15HTTPSessionBaseE(ptr noundef %sess) #4 align 2 {
entry:
  %sess.addr = alloca ptr, align 8
  store ptr %sess, ptr %sess.addr, align 8
  %0 = load ptr, ptr %sess.addr, align 8
  %vtable = load ptr, ptr %0, align 8
  %vfn = getelementptr inbounds ptr, ptr %vtable, i64 53
  %1 = load ptr, ptr %vfn, align 8
  %call = call noundef zeroext i1 %1(ptr noundef nonnull align 8 dereferenceable(1582) %0)
  br i1 %call, label %land.end, label %land.rhs

land.rhs:                                         ; preds = %entry
  %2 = load ptr, ptr %sess.addr, align 8
  %vtable1 = load ptr, ptr %2, align 8
  %vfn2 = getelementptr inbounds ptr, ptr %vtable1, i64 26
  %3 = load ptr, ptr %vfn2, align 8
  %call3 = call noundef i32 %3(ptr noundef nonnull align 8 dereferenceable(1582) %2)
  %tobool = icmp ne i32 %call3, 0
  br i1 %tobool, label %lor.end, label %lor.rhs

lor.rhs:                                          ; preds = %land.rhs
  %4 = load ptr, ptr %sess.addr, align 8
  %vtable4 = load ptr, ptr %4, align 8
  %vfn5 = getelementptr inbounds ptr, ptr %vtable4, i64 52
  %5 = load ptr, ptr %vfn5, align 8
  %call6 = call noundef zeroext i1 %5(ptr noundef nonnull align 8 dereferenceable(1582) %4)
  br label %lor.end

lor.end:                                          ; preds = %lor.rhs, %land.rhs
  %6 = phi i1 [ true, %land.rhs ], [ %call6, %lor.rhs ]
  br label %land.end

land.end:                                         ; preds = %lor.end, %entry
  %7 = phi i1 [ false, %entry ], [ %6, %lor.end ]
  ret i1 %7
}

; Function Attrs: mustprogress nounwind uwtable
define linkonce_odr void @_ZN6google17LogMessageVoidifyanERSo(ptr noundef nonnull align 1 dereferenceable(1) %this, ptr noundef nonnull align 8 dereferenceable(8) %0) #5 comdat align 2 {
entry:
  %this.addr = alloca ptr, align 8
  %.addr = alloca ptr, align 8
  store ptr %this, ptr %this.addr, align 8
  store ptr %0, ptr %.addr, align 8
  ret void
}

; Function Attrs: mustprogress nounwind uwtable
define linkonce_odr void @_ZN6google17LogMessageVoidifyC2Ev(ptr noundef nonnull align 1 dereferenceable(1) %this) unnamed_addr #5 comdat align 2 {
entry:
  %this.addr = alloca ptr, align 8
  store ptr %this, ptr %this.addr, align 8
  ret void
}

; Function Attrs: mustprogress uwtable
define void @_ZN8proxygen13SessionHolder4linkEv(ptr noundef nonnull align 8 dereferenceable(152) %this) #4 align 2 personality ptr @__gxx_personality_v0 {
entry:
  %this.addr = alloca ptr, align 8
  %ref.tmp = alloca %"class.google::LogMessageVoidify", align 1
  %ref.tmp2 = alloca %"class.google::LogMessageFatal", align 8
  %cleanup.cond = alloca i1, align 1
  %exn.slot = alloca ptr, align 8
  %ehselector.slot = alloca i32, align 4
  %verbose_level__ = alloca i32, align 4
  %tmp = alloca i8, align 1
  %ref.tmp20 = alloca %"class.google::LogMessageVoidify", align 1
  %ref.tmp21 = alloca %"class.google::LogMessage", align 8
  %cleanup.cond22 = alloca i1, align 1
  %ref.tmp39 = alloca %"class.std::chrono::time_point", align 8
  %curTxnCount = alloca i32, align 4
  store ptr %this, ptr %this.addr, align 8
  %this1 = load ptr, ptr %this.addr, align 8
  %state_ = getelementptr inbounds %"class.proxygen::SessionHolder", ptr %this1, i32 0, i32 8
  %0 = load i32, ptr %state_, align 8
  %cmp = icmp eq i32 %0, 0
  %lnot = xor i1 %cmp, true
  store i1 false, ptr %cleanup.cond, align 1
  br i1 %lnot, label %cond.false, label %cond.true

cond.true:                                        ; preds = %entry
  br label %cond.end

cond.false:                                       ; preds = %entry
  call void @_ZN6google17LogMessageVoidifyC2Ev(ptr noundef nonnull align 1 dereferenceable(1) %ref.tmp)
  call void @_ZN6google15LogMessageFatalC1EPKci(ptr noundef nonnull align 8 dereferenceable(96) %ref.tmp2, ptr noundef @.str, i32 noundef 131)
  store i1 true, ptr %cleanup.cond, align 1
  %call = invoke noundef nonnull align 8 dereferenceable(8) ptr @_ZN6google10LogMessage6streamEv(ptr noundef nonnull align 8 dereferenceable(96) %ref.tmp2)
          to label %invoke.cont unwind label %lpad

invoke.cont:                                      ; preds = %cond.false
  %call4 = invoke noundef nonnull align 8 dereferenceable(8) ptr @_ZStlsISt11char_traitsIcEERSt13basic_ostreamIcT_ES5_PKc(ptr noundef nonnull align 8 dereferenceable(8) %call, ptr noundef @.str.3)
          to label %invoke.cont3 unwind label %lpad

invoke.cont3:                                     ; preds = %invoke.cont
  invoke void @_ZN6google17LogMessageVoidifyanERSo(ptr noundef nonnull align 1 dereferenceable(1) %ref.tmp, ptr noundef nonnull align 8 dereferenceable(8) %call4)
          to label %invoke.cont5 unwind label %lpad

invoke.cont5:                                     ; preds = %invoke.cont3
  br label %cond.end

cond.end:                                         ; preds = %invoke.cont5, %cond.true
  %cleanup.is_active = load i1, ptr %cleanup.cond, align 1
  br i1 %cleanup.is_active, label %cleanup.action, label %cleanup.done

cleanup.action:                                   ; preds = %cond.end
  call void @_ZN6google15LogMessageFatalD1Ev(ptr noundef nonnull align 8 dereferenceable(96) %ref.tmp2) #16
  unreachable

lpad:                                             ; preds = %invoke.cont3, %invoke.cont, %cond.false
  %1 = landingpad { ptr, i32 }
          cleanup
  %2 = extractvalue { ptr, i32 } %1, 0
  store ptr %2, ptr %exn.slot, align 8
  %3 = extractvalue { ptr, i32 } %1, 1
  store i32 %3, ptr %ehselector.slot, align 4
  %cleanup.is_active6 = load i1, ptr %cleanup.cond, align 1
  br i1 %cleanup.is_active6, label %cleanup.action7, label %cleanup.done8

4:                                                ; No predecessors!
  br label %cleanup.done

cleanup.done:                                     ; preds = %4, %cond.end
  %parent_ = getelementptr inbounds %"class.proxygen::SessionHolder", ptr %this1, i32 0, i32 4
  %5 = load ptr, ptr %parent_, align 8
  %tobool = icmp ne ptr %5, null
  br i1 %tobool, label %if.end, label %if.then

if.then:                                          ; preds = %cleanup.done
  br label %if.end69

cleanup.action7:                                  ; preds = %lpad
  call void @_ZN6google15LogMessageFatalD1Ev(ptr noundef nonnull align 8 dereferenceable(96) %ref.tmp2) #16
  unreachable

6:                                                ; No predecessors!
  br label %cleanup.done8

cleanup.done8:                                    ; preds = %6, %lpad
  br label %eh.resume

if.end:                                           ; preds = %cleanup.done
  %session_ = getelementptr inbounds %"class.proxygen::SessionHolder", ptr %this1, i32 0, i32 3
  %7 = load ptr, ptr %session_, align 8
  %call9 = call noundef zeroext i1 @_ZN8proxygen13SessionHolder10isPoolableEPKNS_15HTTPSessionBaseE(ptr noundef %7)
  br i1 %call9, label %if.end38, label %if.then10

if.then10:                                        ; preds = %if.end
  store i32 4, ptr %verbose_level__, align 4
  %8 = load ptr, ptr @_ZZN8proxygen13SessionHolder4linkEvE8vlocal__, align 8
  %cmp11 = icmp eq ptr %8, null
  store i1 false, ptr %cleanup.cond22, align 1
  br i1 %cmp11, label %cond.true12, label %cond.false14

cond.true12:                                      ; preds = %if.then10
  %9 = load i32, ptr %verbose_level__, align 4
  %call13 = call noundef zeroext i1 @_ZN6google11InitVLOG3__EPNS_8SiteFlagEPiPKci(ptr noundef @_ZZN8proxygen13SessionHolder4linkEvE8vlocal__, ptr noundef @_ZN3fLI7FLAGS_vE, ptr noundef @.str, i32 noundef %9)
  br label %cond.end16

cond.false14:                                     ; preds = %if.then10
  %10 = load ptr, ptr @_ZZN8proxygen13SessionHolder4linkEvE8vlocal__, align 8
  %11 = load i32, ptr %10, align 4
  %12 = load i32, ptr %verbose_level__, align 4
  %cmp15 = icmp sge i32 %11, %12
  br label %cond.end16

cond.end16:                                       ; preds = %cond.false14, %cond.true12
  %cond = phi i1 [ %call13, %cond.true12 ], [ %cmp15, %cond.false14 ]
  %frombool = zext i1 %cond to i8
  store i8 %frombool, ptr %tmp, align 1
  %13 = load i8, ptr %tmp, align 1
  %tobool17 = trunc i8 %13 to i1
  br i1 %tobool17, label %cond.false19, label %cond.true18

cond.true18:                                      ; preds = %cond.end16
  br label %cond.end31

cond.false19:                                     ; preds = %cond.end16
  call void @_ZN6google17LogMessageVoidifyC2Ev(ptr noundef nonnull align 1 dereferenceable(1) %ref.tmp20)
  call void @_ZN6google10LogMessageC1EPKci(ptr noundef nonnull align 8 dereferenceable(96) %ref.tmp21, ptr noundef @.str, i32 noundef 137)
  store i1 true, ptr %cleanup.cond22, align 1
  %call25 = invoke noundef nonnull align 8 dereferenceable(8) ptr @_ZN6google10LogMessage6streamEv(ptr noundef nonnull align 8 dereferenceable(96) %ref.tmp21)
          to label %invoke.cont24 unwind label %lpad23

invoke.cont24:                                    ; preds = %cond.false19
  %call27 = invoke noundef nonnull align 8 dereferenceable(8) ptr @_ZN8proxygenlsERSoRKNS_13SessionHolderE(ptr noundef nonnull align 8 dereferenceable(8) %call25, ptr noundef nonnull align 8 dereferenceable(152) %this1)
          to label %invoke.cont26 unwind label %lpad23

invoke.cont26:                                    ; preds = %invoke.cont24
  %call29 = invoke noundef nonnull align 8 dereferenceable(8) ptr @_ZStlsISt11char_traitsIcEERSt13basic_ostreamIcT_ES5_PKc(ptr noundef nonnull align 8 dereferenceable(8) %call27, ptr noundef @.str.11)
          to label %invoke.cont28 unwind label %lpad23

invoke.cont28:                                    ; preds = %invoke.cont26
  invoke void @_ZN6google17LogMessageVoidifyanERSo(ptr noundef nonnull align 1 dereferenceable(1) %ref.tmp20, ptr noundef nonnull align 8 dereferenceable(8) %call29)
          to label %invoke.cont30 unwind label %lpad23

invoke.cont30:                                    ; preds = %invoke.cont28
  br label %cond.end31

cond.end31:                                       ; preds = %invoke.cont30, %cond.true18
  %cleanup.is_active32 = load i1, ptr %cleanup.cond22, align 1
  br i1 %cleanup.is_active32, label %cleanup.action33, label %cleanup.done34

cleanup.action33:                                 ; preds = %cond.end31
  call void @_ZN6google10LogMessageD1Ev(ptr noundef nonnull align 8 dereferenceable(96) %ref.tmp21) #3
  br label %cleanup.done34

cleanup.done34:                                   ; preds = %cleanup.action33, %cond.end31
  call void @_ZN8proxygen13SessionHolder5drainEv(ptr noundef nonnull align 8 dereferenceable(152) %this1)
  br label %if.end69

lpad23:                                           ; preds = %invoke.cont28, %invoke.cont26, %invoke.cont24, %cond.false19
  %14 = landingpad { ptr, i32 }
          cleanup
  %15 = extractvalue { ptr, i32 } %14, 0
  store ptr %15, ptr %exn.slot, align 8
  %16 = extractvalue { ptr, i32 } %14, 1
  store i32 %16, ptr %ehselector.slot, align 4
  %cleanup.is_active35 = load i1, ptr %cleanup.cond22, align 1
  br i1 %cleanup.is_active35, label %cleanup.action36, label %cleanup.done37

cleanup.action36:                                 ; preds = %lpad23
  call void @_ZN6google10LogMessageD1Ev(ptr noundef nonnull align 8 dereferenceable(96) %ref.tmp21) #3
  br label %cleanup.done37

cleanup.done37:                                   ; preds = %cleanup.action36, %lpad23
  br label %eh.resume

if.end38:                                         ; preds = %if.end
  %call40 = call i64 @_ZNSt6chrono3_V212steady_clock3nowEv() #3
  %coerce.dive = getelementptr inbounds %"class.std::chrono::time_point", ptr %ref.tmp39, i32 0, i32 0
  %coerce.dive41 = getelementptr inbounds %"class.std::chrono::duration", ptr %coerce.dive, i32 0, i32 0
  store i64 %call40, ptr %coerce.dive41, align 8
  %lastUseTime_ = getelementptr inbounds %"class.proxygen::SessionHolder", ptr %this1, i32 0, i32 6
  call void @llvm.memcpy.p0.p0.i64(ptr align 8 %lastUseTime_, ptr align 8 %ref.tmp39, i64 8, i1 false)
  %session_42 = getelementptr inbounds %"class.proxygen::SessionHolder", ptr %this1, i32 0, i32 3
  %17 = load ptr, ptr %session_42, align 8
  %vtable = load ptr, ptr %17, align 8
  %vfn = getelementptr inbounds ptr, ptr %vtable, i64 26
  %18 = load ptr, ptr %vfn, align 8
  %call43 = call noundef i32 %18(ptr noundef nonnull align 8 dereferenceable(1582) %17)
  store i32 %call43, ptr %curTxnCount, align 4
  %session_44 = getelementptr inbounds %"class.proxygen::SessionHolder", ptr %this1, i32 0, i32 3
  %19 = load ptr, ptr %session_44, align 8
  %vtable45 = load ptr, ptr %19, align 8
  %vfn46 = getelementptr inbounds ptr, ptr %vtable45, i64 24
  %20 = load ptr, ptr %vfn46, align 8
  %call47 = call noundef zeroext i1 %20(ptr noundef nonnull align 8 dereferenceable(1582) %19)
  br i1 %call47, label %if.else, label %if.then48

if.then48:                                        ; preds = %if.end38
  %state_49 = getelementptr inbounds %"class.proxygen::SessionHolder", ptr %this1, i32 0, i32 8
  store i32 3, ptr %state_49, align 8
  %parent_50 = getelementptr inbounds %"class.proxygen::SessionHolder", ptr %this1, i32 0, i32 4
  %21 = load ptr, ptr %parent_50, align 8
  %vtable51 = load ptr, ptr %21, align 8
  %vfn52 = getelementptr inbounds ptr, ptr %vtable51, i64 7
  %22 = load ptr, ptr %vfn52, align 8
  call void %22(ptr noundef nonnull align 8 dereferenceable(8) %21, ptr noundef %this1)
  br label %if.end69

if.else:                                          ; preds = %if.end38
  %23 = load i32, ptr %curTxnCount, align 4
  %cmp53 = icmp eq i32 %23, 0
  br i1 %cmp53, label %land.lhs.true, label %if.else63

land.lhs.true:                                    ; preds = %if.else
  %session_54 = getelementptr inbounds %"class.proxygen::SessionHolder", ptr %this1, i32 0, i32 3
  %24 = load ptr, ptr %session_54, align 8
  %vtable55 = load ptr, ptr %24, align 8
  %vfn56 = getelementptr inbounds ptr, ptr %vtable55, i64 47
  %25 = load ptr, ptr %vfn56, align 8
  %call57 = call noundef zeroext i1 %25(ptr noundef nonnull align 8 dereferenceable(1582) %24, i1 noundef zeroext false)
  br i1 %call57, label %if.then58, label %if.else63

if.then58:                                        ; preds = %land.lhs.true
  %state_59 = getelementptr inbounds %"class.proxygen::SessionHolder", ptr %this1, i32 0, i32 8
  store i32 1, ptr %state_59, align 8
  %parent_60 = getelementptr inbounds %"class.proxygen::SessionHolder", ptr %this1, i32 0, i32 4
  %26 = load ptr, ptr %parent_60, align 8
  %vtable61 = load ptr, ptr %26, align 8
  %vfn62 = getelementptr inbounds ptr, ptr %vtable61, i64 5
  %27 = load ptr, ptr %vfn62, align 8
  call void %27(ptr noundef nonnull align 8 dereferenceable(8) %26, ptr noundef %this1)
  br label %if.end68

if.else63:                                        ; preds = %land.lhs.true, %if.else
  %state_64 = getelementptr inbounds %"class.proxygen::SessionHolder", ptr %this1, i32 0, i32 8
  store i32 2, ptr %state_64, align 8
  %parent_65 = getelementptr inbounds %"class.proxygen::SessionHolder", ptr %this1, i32 0, i32 4
  %28 = load ptr, ptr %parent_65, align 8
  %vtable66 = load ptr, ptr %28, align 8
  %vfn67 = getelementptr inbounds ptr, ptr %vtable66, i64 6
  %29 = load ptr, ptr %vfn67, align 8
  call void %29(ptr noundef nonnull align 8 dereferenceable(8) %28, ptr noundef %this1)
  br label %if.end68

if.end68:                                         ; preds = %if.else63, %if.then58
  br label %if.end69

if.end69:                                         ; preds = %if.end68, %if.then48, %cleanup.done34, %if.then
  ret void

eh.resume:                                        ; preds = %cleanup.done37, %cleanup.done8
  %exn = load ptr, ptr %exn.slot, align 8
  %sel = load i32, ptr %ehselector.slot, align 4
  %lpad.val = insertvalue { ptr, i32 } poison, ptr %exn, 0
  %lpad.val70 = insertvalue { ptr, i32 } %lpad.val, i32 %sel, 1
  resume { ptr, i32 } %lpad.val70
}