; Function Attrs: mustprogress uwtable
define void @_ZN8proxygen13SessionHolder4linkEv(ptr noundef nonnull align 8 dereferenceable(152) %this) local_unnamed_addr #3 align 2 personality ptr @__gxx_personality_v0 {
entry:
  %ref.tmp2 = alloca %"class.google::LogMessageFatal", align 8
  %ref.tmp21 = alloca %"class.google::LogMessage", align 8
  %state_ = getelementptr inbounds i8, ptr %this, i64 80
  %0 = load i32, ptr %state_, align 8
  %cmp.not.not = icmp eq i32 %0, 0
  br i1 %cmp.not.not, label %cleanup.done, label %cond.false

cond.false:                                       ; preds = %entry
  call void @_ZN6google15LogMessageFatalC1EPKci(ptr noundef nonnull align 8 dereferenceable(96) %ref.tmp2, ptr noundef nonnull @.str, i32 noundef 131)
  %call = invoke noundef nonnull align 8 dereferenceable(8) ptr @_ZN6google10LogMessage6streamEv(ptr noundef nonnull align 8 dereferenceable(96) %ref.tmp2)
          to label %invoke.cont unwind label %lpad

invoke.cont:                                      ; preds = %cond.false
  %call4 = invoke noundef nonnull align 8 dereferenceable(8) ptr @_ZStlsISt11char_traitsIcEERSt13basic_ostreamIcT_ES5_PKc(ptr noundef nonnull align 8 dereferenceable(8) %call, ptr noundef nonnull @.str.3)
          to label %cleanup.action unwind label %lpad

cleanup.action:                                   ; preds = %invoke.cont
  call void @_ZN6google15LogMessageFatalD1Ev(ptr noundef nonnull align 8 dereferenceable(96) %ref.tmp2) #23
  unreachable

lpad:                                             ; preds = %invoke.cont, %cond.false
  %1 = landingpad { ptr, i32 }
          cleanup
  call void @_ZN6google15LogMessageFatalD1Ev(ptr noundef nonnull align 8 dereferenceable(96) %ref.tmp2) #23
  unreachable

cleanup.done:                                     ; preds = %entry
  %parent_ = getelementptr inbounds i8, ptr %this, i64 48
  %2 = load ptr, ptr %parent_, align 8
  %tobool.not = icmp eq ptr %2, null
  br i1 %tobool.not, label %if.end69, label %if.end

if.end:                                           ; preds = %cleanup.done
  %session_ = getelementptr inbounds i8, ptr %this, i64 40
  %3 = load ptr, ptr %session_, align 8
  %vtable.i = load ptr, ptr %3, align 8
  %vfn.i = getelementptr inbounds i8, ptr %vtable.i, i64 424
  %4 = load ptr, ptr %vfn.i, align 8
  %call.i = tail call noundef zeroext i1 %4(ptr noundef nonnull align 8 dereferenceable(1582) %3)
  br i1 %call.i, label %if.then10, label %land.rhs.i

land.rhs.i:                                       ; preds = %if.end
  %vtable1.i = load ptr, ptr %3, align 8
  %vfn2.i = getelementptr inbounds i8, ptr %vtable1.i, i64 208
  %5 = load ptr, ptr %vfn2.i, align 8
  %call3.i = tail call noundef i32 %5(ptr noundef nonnull align 8 dereferenceable(1582) %3)
  %tobool.not.i = icmp eq i32 %call3.i, 0
  br i1 %tobool.not.i, label %_ZN8proxygen13SessionHolder10isPoolableEPKNS_15HTTPSessionBaseE.exit, label %if.end38

_ZN8proxygen13SessionHolder10isPoolableEPKNS_15HTTPSessionBaseE.exit: ; preds = %land.rhs.i
  %vtable4.i = load ptr, ptr %3, align 8
  %vfn5.i = getelementptr inbounds i8, ptr %vtable4.i, i64 416
  %6 = load ptr, ptr %vfn5.i, align 8
  %call6.i = tail call noundef zeroext i1 %6(ptr noundef nonnull align 8 dereferenceable(1582) %3)
  br i1 %call6.i, label %if.end38, label %if.then10

if.then10:                                        ; preds = %if.end, %_ZN8proxygen13SessionHolder10isPoolableEPKNS_15HTTPSessionBaseE.exit
  %7 = load ptr, ptr @_ZZN8proxygen13SessionHolder4linkEvE8vlocal__, align 8
  %cmp11 = icmp eq ptr %7, null
  br i1 %cmp11, label %cond.true12, label %cond.end16

cond.true12:                                      ; preds = %if.then10
  %call13 = tail call noundef zeroext i1 @_ZN6google11InitVLOG3__EPNS_8SiteFlagEPiPKci(ptr noundef nonnull @_ZZN8proxygen13SessionHolder4linkEvE8vlocal__, ptr noundef nonnull @_ZN3fLI7FLAGS_vE, ptr noundef nonnull @.str, i32 noundef 4)
  br i1 %call13, label %cond.false19, label %cleanup.done34

cond.end16:                                       ; preds = %if.then10
  %8 = load i32, ptr %7, align 4
  %cmp15 = icmp sgt i32 %8, 3
  br i1 %cmp15, label %cond.false19, label %cleanup.done34

cond.false19:                                     ; preds = %cond.true12, %cond.end16
  call void @_ZN6google10LogMessageC1EPKci(ptr noundef nonnull align 8 dereferenceable(96) %ref.tmp21, ptr noundef nonnull @.str, i32 noundef 137)
  %call25 = invoke noundef nonnull align 8 dereferenceable(8) ptr @_ZN6google10LogMessage6streamEv(ptr noundef nonnull align 8 dereferenceable(96) %ref.tmp21)
          to label %invoke.cont24 unwind label %lpad23

invoke.cont24:                                    ; preds = %cond.false19
  invoke void @_ZNK8proxygen13SessionHolder8describeERSo(ptr noundef nonnull align 8 dereferenceable(152) %this, ptr noundef nonnull align 8 dereferenceable(8) %call25)
          to label %invoke.cont26 unwind label %lpad23

invoke.cont26:                                    ; preds = %invoke.cont24
  %call29 = invoke noundef nonnull align 8 dereferenceable(8) ptr @_ZStlsISt11char_traitsIcEERSt13basic_ostreamIcT_ES5_PKc(ptr noundef nonnull align 8 dereferenceable(8) %call25, ptr noundef nonnull @.str.11)
          to label %cleanup.action33 unwind label %lpad23

cleanup.action33:                                 ; preds = %invoke.cont26
  call void @_ZN6google10LogMessageD1Ev(ptr noundef nonnull align 8 dereferenceable(96) %ref.tmp21) #21
  br label %cleanup.done34

cleanup.done34:                                   ; preds = %cond.true12, %cond.end16, %cleanup.action33
  call void @_ZN8proxygen13SessionHolder5drainEv(ptr noundef nonnull align 8 dereferenceable(152) %this)
  br label %if.end69

lpad23:                                           ; preds = %invoke.cont24, %invoke.cont26, %cond.false19
  %9 = landingpad { ptr, i32 }
          cleanup
  call void @_ZN6google10LogMessageD1Ev(ptr noundef nonnull align 8 dereferenceable(96) %ref.tmp21) #21
  resume { ptr, i32 } %9

if.end38:                                         ; preds = %land.rhs.i, %_ZN8proxygen13SessionHolder10isPoolableEPKNS_15HTTPSessionBaseE.exit
  %call40 = tail call i64 @_ZNSt6chrono3_V212steady_clock3nowEv() #21
  %lastUseTime_ = getelementptr inbounds i8, ptr %this, i64 64
  store i64 %call40, ptr %lastUseTime_, align 8
  %10 = load ptr, ptr %session_, align 8
  %vtable = load ptr, ptr %10, align 8
  %vfn = getelementptr inbounds i8, ptr %vtable, i64 208
  %11 = load ptr, ptr %vfn, align 8
  %call43 = tail call noundef i32 %11(ptr noundef nonnull align 8 dereferenceable(1582) %10)
  %12 = load ptr, ptr %session_, align 8
  %vtable45 = load ptr, ptr %12, align 8
  %vfn46 = getelementptr inbounds i8, ptr %vtable45, i64 192
  %13 = load ptr, ptr %vfn46, align 8
  %call47 = tail call noundef zeroext i1 %13(ptr noundef nonnull align 8 dereferenceable(1582) %12)
  br i1 %call47, label %if.else, label %if.then48

if.then48:                                        ; preds = %if.end38
  store i32 3, ptr %state_, align 8
  %14 = load ptr, ptr %parent_, align 8
  %vtable51 = load ptr, ptr %14, align 8
  %vfn52 = getelementptr inbounds i8, ptr %vtable51, i64 56
  %15 = load ptr, ptr %vfn52, align 8
  tail call void %15(ptr noundef nonnull align 8 dereferenceable(8) %14, ptr noundef nonnull %this)
  br label %if.end69

if.else:                                          ; preds = %if.end38
  %cmp53 = icmp eq i32 %call43, 0
  br i1 %cmp53, label %land.lhs.true, label %if.else63

land.lhs.true:                                    ; preds = %if.else
  %16 = load ptr, ptr %session_, align 8
  %vtable55 = load ptr, ptr %16, align 8
  %vfn56 = getelementptr inbounds i8, ptr %vtable55, i64 376
  %17 = load ptr, ptr %vfn56, align 8
  %call57 = tail call noundef zeroext i1 %17(ptr noundef nonnull align 8 dereferenceable(1582) %16, i1 noundef zeroext false)
  br i1 %call57, label %if.then58, label %if.else63

if.then58:                                        ; preds = %land.lhs.true
  store i32 1, ptr %state_, align 8
  %18 = load ptr, ptr %parent_, align 8
  %vtable61 = load ptr, ptr %18, align 8
  %vfn62 = getelementptr inbounds i8, ptr %vtable61, i64 40
  %19 = load ptr, ptr %vfn62, align 8
  tail call void %19(ptr noundef nonnull align 8 dereferenceable(8) %18, ptr noundef nonnull %this)
  br label %if.end69

if.else63:                                        ; preds = %land.lhs.true, %if.else
  store i32 2, ptr %state_, align 8
  %20 = load ptr, ptr %parent_, align 8
  %vtable66 = load ptr, ptr %20, align 8
  %vfn67 = getelementptr inbounds i8, ptr %vtable66, i64 48
  %21 = load ptr, ptr %vfn67, align 8
  tail call void %21(ptr noundef nonnull align 8 dereferenceable(8) %20, ptr noundef nonnull %this)
  br label %if.end69

if.end69:                                         ; preds = %if.then58, %if.else63, %cleanup.done, %if.then48, %cleanup.done34
  ret void
}